target datalayout = "e-m:e-p270:32:32-p271:32:32-p272:64:64-i64:64-i128:128-f80:128-n8:16:32:64-S128"
target triple = "x86_64-pc-linux-gnu"

%"struct.open_spiel::GameType" = type <{ %"class.std::__cxx11::basic_string", %"class.std::__cxx11::basic_string", i32, i32, i32, i32, i32, i32, i32, i8, i8, i8, i8, %"class.std::map", i8, i8, [6 x i8] }>
%"class.std::__cxx11::basic_string" = type { %"struct.std::__cxx11::basic_string<char>::_Alloc_hider", i64, %union.anon }
%"struct.std::__cxx11::basic_string<char>::_Alloc_hider" = type { ptr }
%union.anon = type { i64, [8 x i8] }
%"class.std::map" = type { %"class.std::_Rb_tree" }
%"class.std::_Rb_tree" = type { %"struct.std::_Rb_tree<std::__cxx11::basic_string<char>, std::pair<const std::__cxx11::basic_string<char>, open_spiel::GameParameter>, std::_Select1st<std::pair<const std::__cxx11::basic_string<char>, open_spiel::GameParameter>>, std::less<std::__cxx11::basic_string<char>>>::_Rb_tree_impl" }
%"struct.std::_Rb_tree<std::__cxx11::basic_string<char>, std::pair<const std::__cxx11::basic_string<char>, open_spiel::GameParameter>, std::_Select1st<std::pair<const std::__cxx11::basic_string<char>, open_spiel::GameParameter>>, std::less<std::__cxx11::basic_string<char>>>::_Rb_tree_impl" = type { [8 x i8], %"struct.std::_Rb_tree_header" }
%"struct.std::_Rb_tree_header" = type { %"struct.std::_Rb_tree_node_base", i64 }
%"struct.std::_Rb_tree_node_base" = type { i32, ptr, ptr, ptr }
%"class.std::vector.9" = type { %"struct.std::_Vector_base.10" }
%"struct.std::_Vector_base.10" = type { %"struct.std::_Vector_base<std::__cxx11::basic_string<char>, std::allocator<std::__cxx11::basic_string<char>>>::_Vector_impl" }
%"struct.std::_Vector_base<std::__cxx11::basic_string<char>, std::allocator<std::__cxx11::basic_string<char>>>::_Vector_impl" = type { %"struct.std::_Vector_base<std::__cxx11::basic_string<char>, std::allocator<std::__cxx11::basic_string<char>>>::_Vector_impl_data" }
%"struct.std::_Vector_base<std::__cxx11::basic_string<char>, std::allocator<std::__cxx11::basic_string<char>>>::_Vector_impl_data" = type { ptr, ptr, ptr }
%"class.open_spiel::efg_game::EFGGame" = type { %"class.open_spiel::Game", %"class.std::__cxx11::basic_string", %"class.std::__cxx11::basic_string", i32, i32, %"class.std::vector.29", %"class.std::__cxx11::basic_string", %"class.std::__cxx11::basic_string", %"class.std::vector.9", i32, i32, i32, i32, %"class.absl::debian2::optional", %"class.absl::debian2::optional", %"class.absl::debian2::optional", i8, i8, i8, i8, %"class.std::vector.35", %"class.absl::debian2::flat_hash_map", %"class.absl::debian2::flat_hash_map.48", %"class.absl::debian2::flat_hash_map.59", %"class.absl::debian2::flat_hash_map.59" }
%"class.open_spiel::Game" = type { ptr, %"class.std::enable_shared_from_this", %"struct.open_spiel::GameType", %"class.std::map", %"class.std::map", %"class.absl::debian2::Mutex" }
%"class.std::enable_shared_from_this" = type { %"class.std::weak_ptr" }
%"class.std::weak_ptr" = type { %"class.std::__weak_ptr" }
%"class.std::__weak_ptr" = type { ptr, %"class.std::__weak_count" }
%"class.std::__weak_count" = type { ptr }
%"class.absl::debian2::Mutex" = type { %"struct.std::atomic" }
%"struct.std::atomic" = type { %"struct.std::__atomic_base" }
%"struct.std::__atomic_base" = type { i64 }
%"class.std::vector.29" = type { %"struct.std::_Vector_base.30" }
%"struct.std::_Vector_base.30" = type { %"struct.std::_Vector_base<std::unique_ptr<open_spiel::efg_game::Node>, std::allocator<std::unique_ptr<open_spiel::efg_game::Node>>>::_Vector_impl" }
%"struct.std::_Vector_base<std::unique_ptr<open_spiel::efg_game::Node>, std::allocator<std::unique_ptr<open_spiel::efg_game::Node>>>::_Vector_impl" = type { %"struct.std::_Vector_base<std::unique_ptr<open_spiel::efg_game::Node>, std::allocator<std::unique_ptr<open_spiel::efg_game::Node>>>::_Vector_impl_data" }
%"struct.std::_Vector_base<std::unique_ptr<open_spiel::efg_game::Node>, std::allocator<std::unique_ptr<open_spiel::efg_game::Node>>>::_Vector_impl_data" = type { ptr, ptr, ptr }
%"class.absl::debian2::optional" = type { %"class.absl::debian2::optional_internal::optional_data" }
%"class.absl::debian2::optional_internal::optional_data" = type { %"class.absl::debian2::optional_internal::optional_data_base" }
%"class.absl::debian2::optional_internal::optional_data_base" = type { %"class.absl::debian2::optional_internal::optional_data_dtor_base" }
%"class.absl::debian2::optional_internal::optional_data_dtor_base" = type { i8, %union.anon.34 }
%union.anon.34 = type { double }
%"class.std::vector.35" = type { %"struct.std::_Vector_base.36" }
%"struct.std::_Vector_base.36" = type { %"struct.std::_Vector_base<absl::debian2::flat_hash_map<int, int>, std::allocator<absl::debian2::flat_hash_map<int, int>>>::_Vector_impl" }
%"struct.std::_Vector_base<absl::debian2::flat_hash_map<int, int>, std::allocator<absl::debian2::flat_hash_map<int, int>>>::_Vector_impl" = type { %"struct.std::_Vector_base<absl::debian2::flat_hash_map<int, int>, std::allocator<absl::debian2::flat_hash_map<int, int>>>::_Vector_impl_data" }
%"struct.std::_Vector_base<absl::debian2::flat_hash_map<int, int>, std::allocator<absl::debian2::flat_hash_map<int, int>>>::_Vector_impl_data" = type { ptr, ptr, ptr }
%"class.absl::debian2::flat_hash_map" = type { %"class.absl::debian2::container_internal::raw_hash_map" }
%"class.absl::debian2::container_internal::raw_hash_map" = type { %"class.absl::debian2::container_internal::raw_hash_set" }
%"class.absl::debian2::container_internal::raw_hash_set" = type { ptr, ptr, i64, i64, %"class.absl::debian2::container_internal::CompressedTuple" }
%"class.absl::debian2::container_internal::CompressedTuple" = type { %"struct.absl::debian2::container_internal::internal_compressed_tuple::CompressedTupleImpl" }
%"struct.absl::debian2::container_internal::internal_compressed_tuple::CompressedTupleImpl" = type { %"struct.absl::debian2::container_internal::internal_compressed_tuple::Storage" }
%"struct.absl::debian2::container_internal::internal_compressed_tuple::Storage" = type { i64 }
%"class.absl::debian2::flat_hash_map.48" = type { %"class.absl::debian2::container_internal::raw_hash_map.49" }
%"class.absl::debian2::container_internal::raw_hash_map.49" = type { %"class.absl::debian2::container_internal::raw_hash_set.50" }
%"class.absl::debian2::container_internal::raw_hash_set.50" = type { ptr, ptr, i64, i64, %"class.absl::debian2::container_internal::CompressedTuple.51" }
%"class.absl::debian2::container_internal::CompressedTuple.51" = type { %"struct.absl::debian2::container_internal::internal_compressed_tuple::CompressedTupleImpl.52" }
%"struct.absl::debian2::container_internal::internal_compressed_tuple::CompressedTupleImpl.52" = type { %"struct.absl::debian2::container_internal::internal_compressed_tuple::Storage" }
%"class.absl::debian2::flat_hash_map.59" = type { %"class.absl::debian2::container_internal::raw_hash_map.60" }
%"class.absl::debian2::container_internal::raw_hash_map.60" = type { %"class.absl::debian2::container_internal::raw_hash_set.61" }
%"class.absl::debian2::container_internal::raw_hash_set.61" = type { ptr, ptr, i64, i64, %"class.absl::debian2::container_internal::CompressedTuple.62" }
%"class.absl::debian2::container_internal::CompressedTuple.62" = type { %"struct.absl::debian2::container_internal::internal_compressed_tuple::CompressedTupleImpl.63" }
%"struct.absl::debian2::container_internal::internal_compressed_tuple::CompressedTupleImpl.63" = type { %"struct.absl::debian2::container_internal::internal_compressed_tuple::Storage" }

; Function Attrs: mustprogress nounwind uwtable
define linkonce_odr noundef nonnull align 8 dereferenceable(8) ptr @_ZNK4absl7debian28optionalIdE9referenceEv(ptr noundef nonnull align 8 dereferenceable(16) %0) #5 comdat align 2 {
  %2 = alloca ptr, align 8
  store ptr %0, ptr %2, align 8
  %3 = load ptr, ptr %2, align 8
  %4 = getelementptr inbounds nuw %"class.absl::debian2::optional_internal::optional_data_dtor_base", ptr %3, i32 0, i32 1
  ret ptr %4
}

; Function Attrs: mustprogress nounwind uwtable
define linkonce_odr noundef zeroext i1 @_ZNK4absl7debian28optionalIdEcvbEv(ptr noundef nonnull align 8 dereferenceable(16) %0) #5 comdat align 2 {
  %2 = alloca ptr, align 8
  store ptr %0, ptr %2, align 8
  %3 = load ptr, ptr %2, align 8
  %4 = getelementptr inbounds nuw %"class.absl::debian2::optional_internal::optional_data_dtor_base", ptr %3, i32 0, i32 0
  %5 = load i8, ptr %4, align 8
  %6 = trunc i8 %5 to i1
  ret i1 %6
}

; Function Attrs: mustprogress uwtable
define linkonce_odr noundef nonnull align 8 dereferenceable(8) ptr @_ZNKR4absl7debian28optionalIdE5valueEv(ptr noundef nonnull align 8 dereferenceable(16) %0) #4 comdat align 2 {
  %2 = alloca ptr, align 8
  store ptr %0, ptr %2, align 8
  %3 = load ptr, ptr %2, align 8
  %4 = call noundef zeroext i1 @_ZNK4absl7debian28optionalIdEcvbEv(ptr noundef nonnull align 8 dereferenceable(16) %3) #3
  br i1 %4, label %5, label %7

5:                                                ; preds = %1
  %6 = call noundef nonnull align 8 dereferenceable(8) ptr @_ZNK4absl7debian28optionalIdE9referenceEv(ptr noundef nonnull align 8 dereferenceable(16) %3)
  br label %10

7:                                                ; preds = %1
  call void @_ZN4absl7debian217optional_internal25throw_bad_optional_accessEv() #21
  unreachable

8:                                                ; No predecessors!
  %9 = call noundef nonnull align 8 dereferenceable(8) ptr @_ZNK4absl7debian28optionalIdE9referenceEv(ptr noundef nonnull align 8 dereferenceable(16) %3)
  br label %10

10:                                               ; preds = %8, %5
  %11 = phi ptr [ %6, %5 ], [ %9, %8 ]
  ret ptr %11
}

; Function Attrs: mustprogress uwtable
define noundef double @_ZNK10open_spiel8efg_game7EFGGame10MaxUtilityEv(ptr noundef nonnull align 8 dereferenceable(720) %0) unnamed_addr #4 align 2 {
  %2 = alloca ptr, align 8
  store ptr %0, ptr %2, align 8
  %3 = load ptr, ptr %2, align 8
  %4 = getelementptr inbounds nuw %"class.open_spiel::efg_game::EFGGame", ptr %3, i32 0, i32 14
  %5 = call noundef nonnull align 8 dereferenceable(8) ptr @_ZNKR4absl7debian28optionalIdE5valueEv(ptr noundef nonnull align 8 dereferenceable(16) %4)
  %6 = load double, ptr %5, align 8
  ret double %6
}