; Function Attrs: mustprogress uwtable
define noundef double @_ZNK10open_spiel8efg_game7EFGGame10MaxUtilityEv(ptr noundef nonnull readonly align 8 captures(none) dereferenceable(720) %0) unnamed_addr #3 align 2 {
  %2 = getelementptr inbounds nuw i8, ptr %0, i64 496
  %3 = load i8, ptr %2, align 8
  %4 = trunc i8 %3 to i1
  br i1 %4, label %_ZNKR4absl7debian28optionalIdE5valueEv.exit, label %5

5:                                                ; preds = %1
  tail call void @_ZN4absl7debian217optional_internal25throw_bad_optional_accessEv() #28
  unreachable

_ZNKR4absl7debian28optionalIdE5valueEv.exit:      ; preds = %1
  %6 = getelementptr inbounds nuw i8, ptr %0, i64 504
  %7 = load double, ptr %6, align 8
  ret double %7
}